target datalayout = "e-m:e-p270:32:32-p271:32:32-p272:64:64-i64:64-i128:128-f80:128-n8:16:32:64-S128"
target triple = "x86_64-pc-linux-gnu"

%struct.expert_field = type { i32, i32 }
%struct.nstime_t = type { i64, i32 }
%struct._packet_info = type { ptr, ptr, i32, i32, %struct.nstime_t, %struct.nstime_t, %struct.nstime_t, i8, ptr, ptr, ptr, ptr, %struct._address, %struct._address, %struct._address, %struct._address, %struct._address, %struct._address, i32, ptr, i8, [3 x i8], %struct.anon, i32, i32, i32, i32, ptr, i8, ptr, ptr, i16, i16, i32, i32, i16, i32, i32, ptr, ptr, ptr, i8, i8, i16, i16, i16, i32, i16, i16, ptr, ptr, ptr, ptr, ptr, i32, i32 }
%struct._address = type { i32, i32, ptr, ptr }
%struct.anon = type { i8, [3 x i8] }
%struct._offset_length_buffer_t = type { i32, i32, i32, i32, i32, i32 }

@hf_smb2_olb_length = internal global i32 0, align 4
@hf_smb2_olb_offset = internal global i32 0, align 4
@hf_smb2_reserved = internal global i32 0, align 4
@ett_smb2_olb = internal global i32 0, align 4
@ei_smb2_invalid_length = internal global %struct.expert_field zeroinitializer, align 4
@.str.1550 = private unnamed_addr constant [40 x i8] c"Invalid offset/length. Malformed packet\00", align 1
@.str.1551 = private unnamed_addr constant [20 x i8] c" [Malformed packet]\00", align 1

; Function Attrs: null_pointer_is_valid sspstrong uwtable
define internal ptr @dissect_smb2_olb_off_string(ptr noundef %0, ptr noundef %1, ptr noundef %2, ptr noundef %3, i32 noundef %4, i32 noundef %5) #0 {
  %7 = alloca ptr, align 8
  %8 = alloca ptr, align 8
  %9 = alloca ptr, align 8
  %10 = alloca ptr, align 8
  %11 = alloca ptr, align 8
  %12 = alloca i32, align 4
  %13 = alloca i32, align 4
  %14 = alloca i32, align 4
  %15 = alloca i32, align 4
  %16 = alloca ptr, align 8
  %17 = alloca ptr, align 8
  %18 = alloca ptr, align 8
  %19 = alloca i32, align 4
  store ptr %0, ptr %8, align 8
  store ptr %1, ptr %9, align 8
  store ptr %2, ptr %10, align 8
  store ptr %3, ptr %11, align 8
  store i32 %4, ptr %12, align 4
  store i32 %5, ptr %13, align 4
  call void @llvm.lifetime.start.p0(i64 4, ptr %14) #13
  call void @llvm.lifetime.start.p0(i64 4, ptr %15) #13
  call void @llvm.lifetime.start.p0(i64 8, ptr %16) #13
  store ptr null, ptr %16, align 8
  call void @llvm.lifetime.start.p0(i64 8, ptr %17) #13
  store ptr null, ptr %17, align 8
  call void @llvm.lifetime.start.p0(i64 8, ptr %18) #13
  store ptr null, ptr %18, align 8
  %20 = load i32, ptr %12, align 4
  %21 = load ptr, ptr %11, align 8
  %22 = getelementptr inbounds nuw %struct._offset_length_buffer_t, ptr %21, i32 0, i32 0
  %23 = load i32, ptr %22, align 4
  %24 = add i32 %23, %20
  store i32 %24, ptr %22, align 4
  %25 = load ptr, ptr %11, align 8
  %26 = getelementptr inbounds nuw %struct._offset_length_buffer_t, ptr %25, i32 0, i32 1
  %27 = load i32, ptr %26, align 4
  store i32 %27, ptr %14, align 4
  %28 = load ptr, ptr %11, align 8
  %29 = getelementptr inbounds nuw %struct._offset_length_buffer_t, ptr %28, i32 0, i32 0
  %30 = load i32, ptr %29, align 4
  store i32 %30, ptr %15, align 4
  %31 = load ptr, ptr %10, align 8
  %32 = load i32, ptr %15, align 4
  %33 = load i32, ptr %14, align 4
  call void @tvb_ensure_bytes_exist(ptr noundef %31, i32 noundef %32, i32 noundef %33)
  %34 = load i32, ptr %15, align 4
  %35 = load i32, ptr %14, align 4
  %36 = add i32 %34, %35
  %37 = load i32, ptr %15, align 4
  %38 = icmp slt i32 %36, %37
  br i1 %38, label %49, label %39

39:                                               ; preds = %6
  %40 = load i32, ptr %15, align 4
  %41 = load i32, ptr %14, align 4
  %42 = add i32 %40, %41
  %43 = load i32, ptr %15, align 4
  %44 = load ptr, ptr %10, align 8
  %45 = load i32, ptr %15, align 4
  %46 = call i32 @tvb_reported_length_remaining(ptr noundef %44, i32 noundef %45)
  %47 = add i32 %43, %46
  %48 = icmp sgt i32 %42, %47
  br i1 %48, label %49, label %58

49:                                               ; preds = %39, %6
  %50 = load ptr, ptr %17, align 8
  %51 = load ptr, ptr %8, align 8
  %52 = load ptr, ptr %10, align 8
  %53 = load i32, ptr %15, align 4
  %54 = call ptr (ptr, ptr, ptr, ptr, i32, i32, ptr, ...) @proto_tree_add_expert_format(ptr noundef %50, ptr noundef %51, ptr noundef @ei_smb2_invalid_length, ptr noundef %52, i32 noundef %53, i32 noundef -1, ptr noundef @.str.1550)
  %55 = load ptr, ptr %8, align 8
  %56 = getelementptr inbounds nuw %struct._packet_info, ptr %55, i32 0, i32 1
  %57 = load ptr, ptr %56, align 8
  call void @col_append_str(ptr noundef %57, i32 noundef 25, ptr noundef @.str.1551)
  store ptr null, ptr %7, align 8
  store i32 1, ptr %19, align 4
  br label %179

58:                                               ; preds = %39
  %59 = load i32, ptr %13, align 4
  switch i32 %59, label %90 [
    i32 1, label %60
    i32 2, label %75
  ]

60:                                               ; preds = %58
  %61 = load ptr, ptr %9, align 8
  %62 = load ptr, ptr %11, align 8
  %63 = getelementptr inbounds nuw %struct._offset_length_buffer_t, ptr %62, i32 0, i32 5
  %64 = load i32, ptr %63, align 4
  %65 = load ptr, ptr %10, align 8
  %66 = load i32, ptr %15, align 4
  %67 = load i32, ptr %14, align 4
  %68 = load ptr, ptr %8, align 8
  %69 = getelementptr inbounds nuw %struct._packet_info, ptr %68, i32 0, i32 51
  %70 = load ptr, ptr %69, align 8
  %71 = call ptr @proto_tree_add_item_ret_string(ptr noundef %61, i32 noundef %64, ptr noundef %65, i32 noundef %66, i32 noundef %67, i32 noundef -2147483644, ptr noundef %70, ptr noundef %18)
  store ptr %71, ptr %16, align 8
  %72 = load ptr, ptr %16, align 8
  %73 = load i32, ptr @ett_smb2_olb, align 4
  %74 = call ptr @proto_item_add_subtree(ptr noundef %72, i32 noundef %73)
  store ptr %74, ptr %17, align 8
  br label %90

75:                                               ; preds = %58
  %76 = load ptr, ptr %9, align 8
  %77 = load ptr, ptr %11, align 8
  %78 = getelementptr inbounds nuw %struct._offset_length_buffer_t, ptr %77, i32 0, i32 5
  %79 = load i32, ptr %78, align 4
  %80 = load ptr, ptr %10, align 8
  %81 = load i32, ptr %15, align 4
  %82 = load i32, ptr %14, align 4
  %83 = load ptr, ptr %8, align 8
  %84 = getelementptr inbounds nuw %struct._packet_info, ptr %83, i32 0, i32 51
  %85 = load ptr, ptr %84, align 8
  %86 = call ptr @proto_tree_add_item_ret_string(ptr noundef %76, i32 noundef %79, ptr noundef %80, i32 noundef %81, i32 noundef %82, i32 noundef 0, ptr noundef %85, ptr noundef %18)
  store ptr %86, ptr %16, align 8
  %87 = load ptr, ptr %16, align 8
  %88 = load i32, ptr @ett_smb2_olb, align 4
  %89 = call ptr @proto_item_add_subtree(ptr noundef %87, i32 noundef %88)
  store ptr %89, ptr %17, align 8
  br label %90

90:                                               ; preds = %58, %75, %60
  %91 = load ptr, ptr %11, align 8
  %92 = getelementptr inbounds nuw %struct._offset_length_buffer_t, ptr %91, i32 0, i32 4
  %93 = load i32, ptr %92, align 4
  switch i32 %93, label %177 [
    i32 0, label %94
    i32 1, label %109
    i32 2, label %124
    i32 3, label %147
    i32 4, label %162
  ]

94:                                               ; preds = %90
  %95 = load ptr, ptr %17, align 8
  %96 = load i32, ptr @hf_smb2_olb_offset, align 4
  %97 = load ptr, ptr %10, align 8
  %98 = load ptr, ptr %11, align 8
  %99 = getelementptr inbounds nuw %struct._offset_length_buffer_t, ptr %98, i32 0, i32 2
  %100 = load i32, ptr %99, align 4
  %101 = call ptr @proto_tree_add_item(ptr noundef %95, i32 noundef %96, ptr noundef %97, i32 noundef %100, i32 noundef 2, i32 noundef -2147483648)
  %102 = load ptr, ptr %17, align 8
  %103 = load i32, ptr @hf_smb2_olb_length, align 4
  %104 = load ptr, ptr %10, align 8
  %105 = load ptr, ptr %11, align 8
  %106 = getelementptr inbounds nuw %struct._offset_length_buffer_t, ptr %105, i32 0, i32 3
  %107 = load i32, ptr %106, align 4
  %108 = call ptr @proto_tree_add_item(ptr noundef %102, i32 noundef %103, ptr noundef %104, i32 noundef %107, i32 noundef 2, i32 noundef -2147483648)
  br label %177

109:                                              ; preds = %90
  %110 = load ptr, ptr %17, align 8
  %111 = load i32, ptr @hf_smb2_olb_offset, align 4
  %112 = load ptr, ptr %10, align 8
  %113 = load ptr, ptr %11, align 8
  %114 = getelementptr inbounds nuw %struct._offset_length_buffer_t, ptr %113, i32 0, i32 2
  %115 = load i32, ptr %114, align 4
  %116 = call ptr @proto_tree_add_item(ptr noundef %110, i32 noundef %111, ptr noundef %112, i32 noundef %115, i32 noundef 2, i32 noundef -2147483648)
  %117 = load ptr, ptr %17, align 8
  %118 = load i32, ptr @hf_smb2_olb_length, align 4
  %119 = load ptr, ptr %10, align 8
  %120 = load ptr, ptr %11, align 8
  %121 = getelementptr inbounds nuw %struct._offset_length_buffer_t, ptr %120, i32 0, i32 3
  %122 = load i32, ptr %121, align 4
  %123 = call ptr @proto_tree_add_item(ptr noundef %117, i32 noundef %118, ptr noundef %119, i32 noundef %122, i32 noundef 4, i32 noundef -2147483648)
  br label %177

124:                                              ; preds = %90
  %125 = load ptr, ptr %17, align 8
  %126 = load i32, ptr @hf_smb2_olb_offset, align 4
  %127 = load ptr, ptr %10, align 8
  %128 = load ptr, ptr %11, align 8
  %129 = getelementptr inbounds nuw %struct._offset_length_buffer_t, ptr %128, i32 0, i32 2
  %130 = load i32, ptr %129, align 4
  %131 = call ptr @proto_tree_add_item(ptr noundef %125, i32 noundef %126, ptr noundef %127, i32 noundef %130, i32 noundef 1, i32 noundef 0)
  %132 = load ptr, ptr %17, align 8
  %133 = load i32, ptr @hf_smb2_reserved, align 4
  %134 = load ptr, ptr %10, align 8
  %135 = load ptr, ptr %11, align 8
  %136 = getelementptr inbounds nuw %struct._offset_length_buffer_t, ptr %135, i32 0, i32 2
  %137 = load i32, ptr %136, align 4
  %138 = add i32 %137, 1
  %139 = call ptr @proto_tree_add_item(ptr noundef %132, i32 noundef %133, ptr noundef %134, i32 noundef %138, i32 noundef 1, i32 noundef 0)
  %140 = load ptr, ptr %17, align 8
  %141 = load i32, ptr @hf_smb2_olb_length, align 4
  %142 = load ptr, ptr %10, align 8
  %143 = load ptr, ptr %11, align 8
  %144 = getelementptr inbounds nuw %struct._offset_length_buffer_t, ptr %143, i32 0, i32 3
  %145 = load i32, ptr %144, align 4
  %146 = call ptr @proto_tree_add_item(ptr noundef %140, i32 noundef %141, ptr noundef %142, i32 noundef %145, i32 noundef 4, i32 noundef -2147483648)
  br label %177

147:                                              ; preds = %90
  %148 = load ptr, ptr %17, align 8
  %149 = load i32, ptr @hf_smb2_olb_offset, align 4
  %150 = load ptr, ptr %10, align 8
  %151 = load ptr, ptr %11, align 8
  %152 = getelementptr inbounds nuw %struct._offset_length_buffer_t, ptr %151, i32 0, i32 2
  %153 = load i32, ptr %152, align 4
  %154 = call ptr @proto_tree_add_item(ptr noundef %148, i32 noundef %149, ptr noundef %150, i32 noundef %153, i32 noundef 4, i32 noundef -2147483648)
  %155 = load ptr, ptr %17, align 8
  %156 = load i32, ptr @hf_smb2_olb_length, align 4
  %157 = load ptr, ptr %10, align 8
  %158 = load ptr, ptr %11, align 8
  %159 = getelementptr inbounds nuw %struct._offset_length_buffer_t, ptr %158, i32 0, i32 3
  %160 = load i32, ptr %159, align 4
  %161 = call ptr @proto_tree_add_item(ptr noundef %155, i32 noundef %156, ptr noundef %157, i32 noundef %160, i32 noundef 4, i32 noundef -2147483648)
  br label %177

162:                                              ; preds = %90
  %163 = load ptr, ptr %17, align 8
  %164 = load i32, ptr @hf_smb2_olb_length, align 4
  %165 = load ptr, ptr %10, align 8
  %166 = load ptr, ptr %11, align 8
  %167 = getelementptr inbounds nuw %struct._offset_length_buffer_t, ptr %166, i32 0, i32 3
  %168 = load i32, ptr %167, align 4
  %169 = call ptr @proto_tree_add_item(ptr noundef %163, i32 noundef %164, ptr noundef %165, i32 noundef %168, i32 noundef 4, i32 noundef -2147483648)
  %170 = load ptr, ptr %17, align 8
  %171 = load i32, ptr @hf_smb2_olb_offset, align 4
  %172 = load ptr, ptr %10, align 8
  %173 = load ptr, ptr %11, align 8
  %174 = getelementptr inbounds nuw %struct._offset_length_buffer_t, ptr %173, i32 0, i32 2
  %175 = load i32, ptr %174, align 4
  %176 = call ptr @proto_tree_add_item(ptr noundef %170, i32 noundef %171, ptr noundef %172, i32 noundef %175, i32 noundef 4, i32 noundef -2147483648)
  br label %177

177:                                              ; preds = %90, %162, %147, %124, %109, %94
  %178 = load ptr, ptr %18, align 8
  store ptr %178, ptr %7, align 8
  store i32 1, ptr %19, align 4
  br label %179

179:                                              ; preds = %177, %49
  call void @llvm.lifetime.end.p0(i64 8, ptr %18) #13
  call void @llvm.lifetime.end.p0(i64 8, ptr %17) #13
  call void @llvm.lifetime.end.p0(i64 8, ptr %16) #13
  call void @llvm.lifetime.end.p0(i64 4, ptr %15) #13
  call void @llvm.lifetime.end.p0(i64 4, ptr %14) #13
  %180 = load ptr, ptr %7, align 8
  ret ptr %180
}