; Function Attrs: null_pointer_is_valid sspstrong uwtable
define internal fastcc ptr @dissect_smb2_olb_off_string(ptr noundef %0, ptr noundef %1, ptr noundef %2, ptr noundef captures(none) %3, i32 noundef %4, i32 noundef range(i32 1, 3) %5) unnamed_addr #0 {
  %7 = alloca ptr, align 8
  call void @llvm.lifetime.start.p0(i64 8, ptr nonnull %7) #13
  store ptr null, ptr %7, align 8
  %8 = load i32, ptr %3, align 4
  %9 = add i32 %8, %4
  store i32 %9, ptr %3, align 4
  %10 = getelementptr inbounds nuw i8, ptr %3, i64 4
  %11 = load i32, ptr %10, align 4
  tail call void @tvb_ensure_bytes_exist(ptr noundef %2, i32 noundef %9, i32 noundef %11)
  %12 = add i32 %11, %9
  %13 = icmp slt i32 %12, %9
  br i1 %13, label %18, label %14

14:                                               ; preds = %6
  %15 = tail call i32 @tvb_reported_length_remaining(ptr noundef %2, i32 noundef %9)
  %16 = add i32 %15, %9
  %17 = icmp sgt i32 %12, %16
  br i1 %17, label %18, label %22

18:                                               ; preds = %14, %6
  %19 = tail call ptr (ptr, ptr, ptr, ptr, i32, i32, ptr, ...) @proto_tree_add_expert_format(ptr noundef null, ptr noundef %0, ptr noundef nonnull @ei_smb2_invalid_length, ptr noundef %2, i32 noundef %9, i32 noundef -1, ptr noundef nonnull @.str.1550)
  %20 = getelementptr inbounds nuw i8, ptr %0, i64 8
  %21 = load ptr, ptr %20, align 8
  tail call void @col_append_str(ptr noundef %21, i32 noundef 25, ptr noundef nonnull @.str.1551)
  br label %67

22:                                               ; preds = %14
  %switch = icmp eq i32 %5, 1
  %23 = getelementptr inbounds nuw i8, ptr %3, i64 20
  %24 = load i32, ptr %23, align 4
  %25 = getelementptr inbounds nuw i8, ptr %0, i64 408
  %26 = load ptr, ptr %25, align 8
  %. = select i1 %switch, i32 -2147483644, i32 0
  %27 = call ptr @proto_tree_add_item_ret_string(ptr noundef %1, i32 noundef %24, ptr noundef %2, i32 noundef %9, i32 noundef %11, i32 noundef %., ptr noundef %26, ptr noundef nonnull %7)
  %28 = load i32, ptr @ett_smb2_olb, align 4
  %29 = call ptr @proto_item_add_subtree(ptr noundef %27, i32 noundef %28)
  %30 = getelementptr inbounds nuw i8, ptr %3, i64 16
  %31 = load i32, ptr %30, align 4
  switch i32 %31, label %65 [
    i32 0, label %32
    i32 1, label %37
    i32 2, label %42
    i32 3, label %51
    i32 4, label %56
  ]

32:                                               ; preds = %22
  %33 = load i32, ptr @hf_smb2_olb_offset, align 4
  %34 = getelementptr inbounds nuw i8, ptr %3, i64 8
  %35 = load i32, ptr %34, align 4
  %36 = call ptr @proto_tree_add_item(ptr noundef %29, i32 noundef %33, ptr noundef %2, i32 noundef %35, i32 noundef 2, i32 noundef -2147483648)
  br label %.sink.split

37:                                               ; preds = %22
  %38 = load i32, ptr @hf_smb2_olb_offset, align 4
  %39 = getelementptr inbounds nuw i8, ptr %3, i64 8
  %40 = load i32, ptr %39, align 4
  %41 = call ptr @proto_tree_add_item(ptr noundef %29, i32 noundef %38, ptr noundef %2, i32 noundef %40, i32 noundef 2, i32 noundef -2147483648)
  br label %.sink.split

42:                                               ; preds = %22
  %43 = load i32, ptr @hf_smb2_olb_offset, align 4
  %44 = getelementptr inbounds nuw i8, ptr %3, i64 8
  %45 = load i32, ptr %44, align 4
  %46 = call ptr @proto_tree_add_item(ptr noundef %29, i32 noundef %43, ptr noundef %2, i32 noundef %45, i32 noundef 1, i32 noundef 0)
  %47 = load i32, ptr @hf_smb2_reserved, align 4
  %48 = load i32, ptr %44, align 4
  %49 = add i32 %48, 1
  %50 = call ptr @proto_tree_add_item(ptr noundef %29, i32 noundef %47, ptr noundef %2, i32 noundef %49, i32 noundef 1, i32 noundef 0)
  br label %.sink.split

51:                                               ; preds = %22
  %52 = load i32, ptr @hf_smb2_olb_offset, align 4
  %53 = getelementptr inbounds nuw i8, ptr %3, i64 8
  %54 = load i32, ptr %53, align 4
  %55 = call ptr @proto_tree_add_item(ptr noundef %29, i32 noundef %52, ptr noundef %2, i32 noundef %54, i32 noundef 4, i32 noundef -2147483648)
  br label %.sink.split

56:                                               ; preds = %22
  %57 = load i32, ptr @hf_smb2_olb_length, align 4
  %58 = getelementptr inbounds nuw i8, ptr %3, i64 12
  %59 = load i32, ptr %58, align 4
  %60 = call ptr @proto_tree_add_item(ptr noundef %29, i32 noundef %57, ptr noundef %2, i32 noundef %59, i32 noundef 4, i32 noundef -2147483648)
  br label %.sink.split

.sink.split:                                      ; preds = %32, %37, %42, %51, %56
  %hf_smb2_olb_offset.sink = phi ptr [ @hf_smb2_olb_offset, %56 ], [ @hf_smb2_olb_length, %51 ], [ @hf_smb2_olb_length, %42 ], [ @hf_smb2_olb_length, %37 ], [ @hf_smb2_olb_length, %32 ]
  %.sink77 = phi i64 [ 8, %56 ], [ 12, %51 ], [ 12, %42 ], [ 12, %37 ], [ 12, %32 ]
  %.sink75 = phi i32 [ 4, %56 ], [ 4, %51 ], [ 4, %42 ], [ 4, %37 ], [ 2, %32 ]
  %61 = load i32, ptr %hf_smb2_olb_offset.sink, align 4
  %62 = getelementptr inbounds nuw i8, ptr %3, i64 %.sink77
  %63 = load i32, ptr %62, align 4
  %64 = call ptr @proto_tree_add_item(ptr noundef %29, i32 noundef %61, ptr noundef %2, i32 noundef %63, i32 noundef %.sink75, i32 noundef -2147483648)
  br label %65

65:                                               ; preds = %.sink.split, %22
  %66 = load ptr, ptr %7, align 8
  br label %67

67:                                               ; preds = %65, %18
  %.069 = phi ptr [ null, %18 ], [ %66, %65 ]
  call void @llvm.lifetime.end.p0(i64 8, ptr nonnull %7) #13
  ret ptr %.069
}